target datalayout = "e-m:e-p270:32:32-p271:32:32-p272:64:64-i64:64-i128:128-f80:128-n8:16:32:64-S128"
target triple = "x86_64-pc-linux-gnu"

%"class.icu_77::UObject" = type { ptr }
%union.UElement = type { ptr }
%"class.icu_77::UnicodeString" = type { %"class.icu_77::Replaceable", %"union.icu_77::UnicodeString::StackBufferOrFields" }
%"class.icu_77::Replaceable" = type { %"class.icu_77::UObject" }
%"union.icu_77::UnicodeString::StackBufferOrFields" = type { %struct.anon.1, [32 x i8] }
%struct.anon.1 = type { i16, i32, i32, ptr }
%struct.UHashElement = type { i32, %union.UElement, %union.UElement }
%"class.icu_77::Hashtable" = type { ptr, %struct.UHashtable }
%struct.UHashtable = type { ptr, ptr, ptr, ptr, ptr, ptr, i32, i32, i32, i32, float, float, i8, i8 }

; Function Attrs: inlinehint mustprogress uwtable
define linkonce_odr noundef ptr @_ZN6icu_779Hashtable3putERKNS_13UnicodeStringEPvR10UErrorCode(ptr noundef nonnull align 8 dereferenceable(88) %0, ptr noundef nonnull align 8 dereferenceable(64) %1, ptr noundef %2, ptr noundef nonnull align 4 dereferenceable(4) %3) #3 comdat align 2 personality ptr @__gxx_personality_v0 {
  %5 = alloca ptr, align 8
  %6 = alloca ptr, align 8
  %7 = alloca ptr, align 8
  %8 = alloca ptr, align 8
  %9 = alloca i1, align 1
  %10 = alloca ptr, align 8
  %11 = alloca i32, align 4
  store ptr %0, ptr %5, align 8, !tbaa !31
  store ptr %1, ptr %6, align 8, !tbaa !53
  store ptr %2, ptr %7, align 8, !tbaa !22
  store ptr %3, ptr %8, align 8, !tbaa !22
  %12 = load ptr, ptr %5, align 8
  %13 = getelementptr inbounds nuw %"class.icu_77::Hashtable", ptr %12, i32 0, i32 0
  %14 = load ptr, ptr %13, align 8, !tbaa !61
  %15 = call noundef ptr @_ZN6icu_777UMemorynwEm(i64 noundef 64) #11
  %16 = icmp eq ptr %15, null
  store i1 false, ptr %9, align 1
  br i1 %16, label %20, label %17

17:                                               ; preds = %4
  store i1 true, ptr %9, align 1
  %18 = load ptr, ptr %6, align 8, !tbaa !53
  invoke void @_ZN6icu_7713UnicodeStringC1ERKS0_(ptr noundef nonnull align 8 dereferenceable(64) %15, ptr noundef nonnull align 8 dereferenceable(64) %18)
          to label %19 unwind label %25

19:                                               ; preds = %17
  br label %20

20:                                               ; preds = %19, %4
  %21 = phi ptr [ %15, %19 ], [ null, %4 ]
  %22 = load ptr, ptr %7, align 8, !tbaa !22
  %23 = load ptr, ptr %8, align 8, !tbaa !22
  %24 = call ptr @uhash_put_77(ptr noundef %14, ptr noundef %21, ptr noundef %22, ptr noundef %23)
  ret ptr %24

25:                                               ; preds = %17
  %26 = landingpad { ptr, i32 }
          cleanup
  %27 = extractvalue { ptr, i32 } %26, 0
  store ptr %27, ptr %10, align 8
  %28 = extractvalue { ptr, i32 } %26, 1
  store i32 %28, ptr %11, align 4
  %29 = load i1, ptr %9, align 1
  br i1 %29, label %30, label %31

30:                                               ; preds = %25
  call void @_ZN6icu_777UMemorydlEPv(ptr noundef %15) #11
  br label %31

31:                                               ; preds = %30, %25
  br label %32

32:                                               ; preds = %31
  %33 = load ptr, ptr %10, align 8
  %34 = load i32, ptr %11, align 4
  %35 = insertvalue { ptr, i32 } poison, ptr %33, 0
  %36 = insertvalue { ptr, i32 } %35, i32 %34, 1
  resume { ptr, i32 } %36
}

; Function Attrs: inlinehint mustprogress uwtable
define linkonce_odr noundef ptr @_ZNK6icu_779Hashtable11nextElementERi(ptr noundef nonnull align 8 dereferenceable(88) %0, ptr noundef nonnull align 4 dereferenceable(4) %1) #3 comdat align 2 {
  %3 = alloca ptr, align 8
  %4 = alloca ptr, align 8
  store ptr %0, ptr %3, align 8, !tbaa !31
  store ptr %1, ptr %4, align 8, !tbaa !20
  %5 = load ptr, ptr %3, align 8
  %6 = getelementptr inbounds nuw %"class.icu_77::Hashtable", ptr %5, i32 0, i32 0
  %7 = load ptr, ptr %6, align 8, !tbaa !61
  %8 = load ptr, ptr %4, align 8, !tbaa !20
  %9 = call ptr @uhash_nextElement_77(ptr noundef %7, ptr noundef %8)
  ret ptr %9
}

; Function Attrs: inlinehint mustprogress nounwind uwtable
define internal noundef signext i8 @_ZL9U_FAILURE10UErrorCode(i32 noundef %0) #2 {
  %2 = alloca i32, align 4
  store i32 %0, ptr %2, align 4, !tbaa !15
  %3 = load i32, ptr %2, align 4, !tbaa !15
  %4 = icmp sgt i32 %3, 0
  %5 = zext i1 %4 to i8
  ret i8 %5
}

; Function Attrs: mustprogress uwtable
define void @_ZN6icu_7714TimeUnitFormat8copyHashEPKNS_9HashtableEPS1_R10UErrorCode(ptr noundef nonnull align 8 dereferenceable(124) %0, ptr noundef %1, ptr noundef %2, ptr noundef nonnull align 4 dereferenceable(4) %3) #1 align 2 personality ptr @__gxx_personality_v0 {
  %5 = alloca ptr, align 8
  %6 = alloca ptr, align 8
  %7 = alloca ptr, align 8
  %8 = alloca ptr, align 8
  %9 = alloca i32, align 4
  %10 = alloca ptr, align 8
  %11 = alloca %union.UElement, align 8
  %12 = alloca ptr, align 8
  %13 = alloca %union.UElement, align 8
  %14 = alloca ptr, align 8
  %15 = alloca ptr, align 8
  %16 = alloca %"class.icu_77::UnicodeString", align 8
  %17 = alloca ptr, align 8
  %18 = alloca i32, align 4
  %19 = alloca i32, align 4
  store ptr %0, ptr %5, align 8, !tbaa !23
  store ptr %1, ptr %6, align 8, !tbaa !31
  store ptr %2, ptr %7, align 8, !tbaa !31
  store ptr %3, ptr %8, align 8, !tbaa !22
  %20 = load ptr, ptr %8, align 8, !tbaa !22
  %21 = load i32, ptr %20, align 4, !tbaa !15
  %22 = call noundef signext i8 @_ZL9U_FAILURE10UErrorCode(i32 noundef %21)
  %23 = icmp ne i8 %22, 0
  br i1 %23, label %24, label %25

24:                                               ; preds = %4
  br label %101

25:                                               ; preds = %4
  call void @llvm.lifetime.start.p0(i64 4, ptr %9) #11
  store i32 -1, ptr %9, align 4, !tbaa !14
  call void @llvm.lifetime.start.p0(i64 8, ptr %10) #11
  store ptr null, ptr %10, align 8, !tbaa !49
  %26 = load ptr, ptr %6, align 8, !tbaa !31
  %27 = icmp ne ptr %26, null
  br i1 %27, label %28, label %98

28:                                               ; preds = %25
  br label %29

29:                                               ; preds = %96, %28
  %30 = load ptr, ptr %6, align 8, !tbaa !31
  %31 = call noundef ptr @_ZNK6icu_779Hashtable11nextElementERi(ptr noundef nonnull align 8 dereferenceable(88) %30, ptr noundef nonnull align 4 dereferenceable(4) %9)
  store ptr %31, ptr %10, align 8, !tbaa !49
  %32 = icmp ne ptr %31, null
  br i1 %32, label %33, label %97

33:                                               ; preds = %29
  call void @llvm.lifetime.start.p0(i64 8, ptr %11) #11
  %34 = load ptr, ptr %10, align 8, !tbaa !49
  %35 = getelementptr inbounds nuw %struct.UHashElement, ptr %34, i32 0, i32 2
  call void @llvm.memcpy.p0.p0.i64(ptr align 8 %11, ptr align 8 %35, i64 8, i1 false), !tbaa.struct !51
  call void @llvm.lifetime.start.p0(i64 8, ptr %12) #11
  %36 = load ptr, ptr %11, align 8, !tbaa !52
  store ptr %36, ptr %12, align 8, !tbaa !53
  call void @llvm.lifetime.start.p0(i64 8, ptr %13) #11
  %37 = load ptr, ptr %10, align 8, !tbaa !49
  %38 = getelementptr inbounds nuw %struct.UHashElement, ptr %37, i32 0, i32 1
  call void @llvm.memcpy.p0.p0.i64(ptr align 8 %13, ptr align 8 %38, i64 8, i1 false), !tbaa.struct !51
  call void @llvm.lifetime.start.p0(i64 8, ptr %14) #11
  %39 = load ptr, ptr %13, align 8, !tbaa !52
  store ptr %39, ptr %14, align 8, !tbaa !55
  call void @llvm.lifetime.start.p0(i64 8, ptr %15) #11
  %40 = call noalias ptr @uprv_malloc_77(i64 noundef 16) #12
  store ptr %40, ptr %15, align 8, !tbaa !55
  %41 = load ptr, ptr %14, align 8, !tbaa !55
  %42 = getelementptr inbounds ptr, ptr %41, i64 0
  %43 = load ptr, ptr %42, align 8, !tbaa !58
  %44 = load ptr, ptr %43, align 8, !tbaa !25
  %45 = getelementptr inbounds ptr, ptr %44, i64 4
  %46 = load ptr, ptr %45, align 8
  %47 = call noundef ptr %46(ptr noundef nonnull align 8 dereferenceable(512) %43)
  %48 = load ptr, ptr %15, align 8, !tbaa !55
  %49 = getelementptr inbounds ptr, ptr %48, i64 0
  store ptr %47, ptr %49, align 8, !tbaa !58
  %50 = load ptr, ptr %14, align 8, !tbaa !55
  %51 = getelementptr inbounds ptr, ptr %50, i64 1
  %52 = load ptr, ptr %51, align 8, !tbaa !58
  %53 = load ptr, ptr %52, align 8, !tbaa !25
  %54 = getelementptr inbounds ptr, ptr %53, i64 4
  %55 = load ptr, ptr %54, align 8
  %56 = call noundef ptr %55(ptr noundef nonnull align 8 dereferenceable(512) %52)
  %57 = load ptr, ptr %15, align 8, !tbaa !55
  %58 = getelementptr inbounds ptr, ptr %57, i64 1
  store ptr %56, ptr %58, align 8, !tbaa !58
  %59 = load ptr, ptr %7, align 8, !tbaa !31
  call void @llvm.lifetime.start.p0(i64 64, ptr %16) #11
  %60 = load ptr, ptr %12, align 8, !tbaa !53
  call void @_ZN6icu_7713UnicodeStringC1ERKS0_(ptr noundef nonnull align 8 dereferenceable(64) %16, ptr noundef nonnull align 8 dereferenceable(64) %60)
  %61 = load ptr, ptr %15, align 8, !tbaa !55
  %62 = load ptr, ptr %8, align 8, !tbaa !22
  %63 = invoke noundef ptr @_ZN6icu_779Hashtable3putERKNS_13UnicodeStringEPvR10UErrorCode(ptr noundef nonnull align 8 dereferenceable(88) %59, ptr noundef nonnull align 8 dereferenceable(64) %16, ptr noundef %61, ptr noundef nonnull align 4 dereferenceable(4) %62)
          to label %64 unwind label %89

64:                                               ; preds = %33
  call void @_ZN6icu_7713UnicodeStringD1Ev(ptr noundef nonnull align 8 dereferenceable(64) %16) #11
  call void @llvm.lifetime.end.p0(i64 64, ptr %16) #11
  %65 = load ptr, ptr %8, align 8, !tbaa !22
  %66 = load i32, ptr %65, align 4, !tbaa !15
  %67 = call noundef signext i8 @_ZL9U_FAILURE10UErrorCode(i32 noundef %66)
  %68 = icmp ne i8 %67, 0
  br i1 %68, label %69, label %93

69:                                               ; preds = %64
  %70 = load ptr, ptr %15, align 8, !tbaa !55
  %71 = getelementptr inbounds ptr, ptr %70, i64 0
  %72 = load ptr, ptr %71, align 8, !tbaa !58
  %73 = icmp eq ptr %72, null
  br i1 %73, label %78, label %74

74:                                               ; preds = %69
  %75 = load ptr, ptr %72, align 8, !tbaa !25
  %76 = getelementptr inbounds ptr, ptr %75, i64 1
  %77 = load ptr, ptr %76, align 8
  call void %77(ptr noundef nonnull align 8 dereferenceable(512) %72) #11
  br label %78

78:                                               ; preds = %74, %69
  %79 = load ptr, ptr %15, align 8, !tbaa !55
  %80 = getelementptr inbounds ptr, ptr %79, i64 1
  %81 = load ptr, ptr %80, align 8, !tbaa !58
  %82 = icmp eq ptr %81, null
  br i1 %82, label %87, label %83

83:                                               ; preds = %78
  %84 = load ptr, ptr %81, align 8, !tbaa !25
  %85 = getelementptr inbounds ptr, ptr %84, i64 1
  %86 = load ptr, ptr %85, align 8
  call void %86(ptr noundef nonnull align 8 dereferenceable(512) %81) #11
  br label %87

87:                                               ; preds = %83, %78
  %88 = load ptr, ptr %15, align 8, !tbaa !55
  call void @uprv_free_77(ptr noundef %88)
  store i32 1, ptr %19, align 4
  br label %94

89:                                               ; preds = %33
  %90 = landingpad { ptr, i32 }
          cleanup
  %91 = extractvalue { ptr, i32 } %90, 0
  store ptr %91, ptr %17, align 8
  %92 = extractvalue { ptr, i32 } %90, 1
  store i32 %92, ptr %18, align 4
  call void @_ZN6icu_7713UnicodeStringD1Ev(ptr noundef nonnull align 8 dereferenceable(64) %16) #11
  call void @llvm.lifetime.end.p0(i64 64, ptr %16) #11
  call void @llvm.lifetime.end.p0(i64 8, ptr %15) #11
  call void @llvm.lifetime.end.p0(i64 8, ptr %14) #11
  call void @llvm.lifetime.end.p0(i64 8, ptr %13) #11
  call void @llvm.lifetime.end.p0(i64 8, ptr %12) #11
  call void @llvm.lifetime.end.p0(i64 8, ptr %11) #11
  call void @llvm.lifetime.end.p0(i64 8, ptr %10) #11
  call void @llvm.lifetime.end.p0(i64 4, ptr %9) #11
  br label %102

93:                                               ; preds = %64
  store i32 0, ptr %19, align 4
  br label %94

94:                                               ; preds = %93, %87
  call void @llvm.lifetime.end.p0(i64 8, ptr %15) #11
  call void @llvm.lifetime.end.p0(i64 8, ptr %14) #11
  call void @llvm.lifetime.end.p0(i64 8, ptr %13) #11
  call void @llvm.lifetime.end.p0(i64 8, ptr %12) #11
  call void @llvm.lifetime.end.p0(i64 8, ptr %11) #11
  %95 = load i32, ptr %19, align 4
  switch i32 %95, label %99 [
    i32 0, label %96
  ]

96:                                               ; preds = %94
  br label %29, !llvm.loop !60

97:                                               ; preds = %29
  br label %98

98:                                               ; preds = %97, %25
  store i32 0, ptr %19, align 4
  br label %99

99:                                               ; preds = %98, %94
  call void @llvm.lifetime.end.p0(i64 8, ptr %10) #11
  call void @llvm.lifetime.end.p0(i64 4, ptr %9) #11
  %100 = load i32, ptr %19, align 4
  switch i32 %100, label %107 [
    i32 0, label %101
    i32 1, label %101
  ]

101:                                              ; preds = %24, %99, %99
  ret void

102:                                              ; preds = %89
  %103 = load ptr, ptr %17, align 8
  %104 = load i32, ptr %18, align 4
  %105 = insertvalue { ptr, i32 } poison, ptr %103, 0
  %106 = insertvalue { ptr, i32 } %105, i32 %104, 1
  resume { ptr, i32 } %106

107:                                              ; preds = %99
  unreachable
}