; Function Attrs: mustprogress uwtable
define void @_ZN6icu_7714TimeUnitFormat8copyHashEPKNS_9HashtableEPS1_R10UErrorCode(ptr nonnull readnone align 8 captures(none) %0, ptr noundef readonly %1, ptr noundef readonly captures(none) %2, ptr noundef nonnull align 4 dereferenceable(4) %3) local_unnamed_addr #1 align 2 personality ptr @__gxx_personality_v0 {
  %5 = alloca i32, align 4
  %6 = alloca %"class.icu_77::UnicodeString", align 8
  %7 = load i32, ptr %3, align 4, !tbaa !13
  %8 = icmp slt i32 %7, 1
  br i1 %8, label %9, label %56

9:                                                ; preds = %4
  call void @llvm.lifetime.start.p0(i64 4, ptr nonnull %5) #16
  store i32 -1, ptr %5, align 4, !tbaa !12
  %.not23 = icmp eq ptr %1, null
  br i1 %.not23, label %.loopexit, label %.critedge

.critedge:                                        ; preds = %9, %_ZN6icu_779Hashtable3putERKNS_13UnicodeStringEPvR10UErrorCode.exit
  %10 = load ptr, ptr %1, align 8, !tbaa !31
  %11 = call noundef ptr @uhash_nextElement_77(ptr noundef %10, ptr noundef nonnull align 4 dereferenceable(4) %5)
  %.not24 = icmp eq ptr %11, null
  br i1 %.not24, label %.loopexit, label %12

12:                                               ; preds = %.critedge
  %13 = getelementptr inbounds nuw i8, ptr %11, i64 16
  %.sroa.011.0.copyload = load ptr, ptr %13, align 8, !tbaa !39
  %14 = getelementptr inbounds nuw i8, ptr %11, i64 8
  %.sroa.0.0.copyload = load ptr, ptr %14, align 8, !tbaa !39
  %15 = call noalias dereferenceable_or_null(16) ptr @uprv_malloc_77(i64 noundef 16) #17
  %16 = load ptr, ptr %.sroa.0.0.copyload, align 8, !tbaa !40
  %17 = load ptr, ptr %16, align 8, !tbaa !15
  %18 = getelementptr inbounds nuw i8, ptr %17, i64 32
  %19 = load ptr, ptr %18, align 8
  %20 = call noundef ptr %19(ptr noundef nonnull align 8 dereferenceable(512) %16)
  store ptr %20, ptr %15, align 8, !tbaa !40
  %21 = getelementptr inbounds nuw i8, ptr %.sroa.0.0.copyload, i64 8
  %22 = load ptr, ptr %21, align 8, !tbaa !40
  %23 = load ptr, ptr %22, align 8, !tbaa !15
  %24 = getelementptr inbounds nuw i8, ptr %23, i64 32
  %25 = load ptr, ptr %24, align 8
  %26 = call noundef ptr %25(ptr noundef nonnull align 8 dereferenceable(512) %22)
  %27 = getelementptr inbounds nuw i8, ptr %15, i64 8
  store ptr %26, ptr %27, align 8, !tbaa !40
  call void @llvm.lifetime.start.p0(i64 64, ptr nonnull %6) #16
  call void @_ZN6icu_7713UnicodeStringC1ERKS0_(ptr noundef nonnull align 8 dereferenceable(64) %6, ptr noundef nonnull align 8 dereferenceable(64) %.sroa.011.0.copyload)
  %28 = load ptr, ptr %2, align 8, !tbaa !31
  %29 = call noundef ptr @_ZN6icu_777UMemorynwEm(i64 noundef 64) #16
  %30 = icmp eq ptr %29, null
  br i1 %30, label %32, label %31

31:                                               ; preds = %12
  invoke void @_ZN6icu_7713UnicodeStringC1ERKS0_(ptr noundef nonnull align 8 dereferenceable(64) %29, ptr noundef nonnull align 8 dereferenceable(64) %6)
          to label %32 unwind label %34

32:                                               ; preds = %31, %12
  %33 = invoke noundef ptr @uhash_put_77(ptr noundef %28, ptr noundef %29, ptr noundef nonnull %15, ptr noundef nonnull align 4 dereferenceable(4) %3)
          to label %_ZN6icu_779Hashtable3putERKNS_13UnicodeStringEPvR10UErrorCode.exit unwind label %54

34:                                               ; preds = %31
  %35 = landingpad { ptr, i32 }
          cleanup
  call void @_ZN6icu_777UMemorydlEPv(ptr noundef nonnull %29) #16
  br label %.body

_ZN6icu_779Hashtable3putERKNS_13UnicodeStringEPvR10UErrorCode.exit: ; preds = %32
  call void @_ZN6icu_7713UnicodeStringD1Ev(ptr noundef nonnull align 8 dereferenceable(64) %6) #16
  call void @llvm.lifetime.end.p0(i64 64, ptr nonnull %6) #16
  %36 = load i32, ptr %3, align 4, !tbaa !13
  %37 = icmp slt i32 %36, 1
  br i1 %37, label %.critedge, label %38

38:                                               ; preds = %_ZN6icu_779Hashtable3putERKNS_13UnicodeStringEPvR10UErrorCode.exit
  %39 = getelementptr inbounds nuw i8, ptr %15, i64 8
  %40 = load ptr, ptr %15, align 8, !tbaa !40
  %41 = icmp eq ptr %40, null
  br i1 %41, label %46, label %42

42:                                               ; preds = %38
  %43 = load ptr, ptr %40, align 8, !tbaa !15
  %44 = getelementptr inbounds nuw i8, ptr %43, i64 8
  %45 = load ptr, ptr %44, align 8
  call void %45(ptr noundef nonnull align 8 dereferenceable(512) %40) #16
  br label %46

46:                                               ; preds = %42, %38
  %47 = load ptr, ptr %39, align 8, !tbaa !40
  %48 = icmp eq ptr %47, null
  br i1 %48, label %53, label %49

49:                                               ; preds = %46
  %50 = load ptr, ptr %47, align 8, !tbaa !15
  %51 = getelementptr inbounds nuw i8, ptr %50, i64 8
  %52 = load ptr, ptr %51, align 8
  call void %52(ptr noundef nonnull align 8 dereferenceable(512) %47) #16
  br label %53

53:                                               ; preds = %49, %46
  call void @uprv_free_77(ptr noundef nonnull %15)
  br label %.loopexit, !llvm.loop !42

54:                                               ; preds = %32
  %55 = landingpad { ptr, i32 }
          cleanup
  br label %.body

.body:                                            ; preds = %34, %54
  %eh.lpad-body = phi { ptr, i32 } [ %55, %54 ], [ %35, %34 ]
  call void @_ZN6icu_7713UnicodeStringD1Ev(ptr noundef nonnull align 8 dereferenceable(64) %6) #16
  call void @llvm.lifetime.end.p0(i64 64, ptr nonnull %6) #16
  call void @llvm.lifetime.end.p0(i64 4, ptr nonnull %5) #16
  resume { ptr, i32 } %eh.lpad-body

.loopexit:                                        ; preds = %.critedge, %53, %9
  call void @llvm.lifetime.end.p0(i64 4, ptr nonnull %5) #16
  br label %56

56:                                               ; preds = %4, %.loopexit
  ret void
}